; Function Attrs: null_pointer_is_valid sspstrong uwtable
define internal void @dissect_pfcp_qfi(ptr noundef %0, ptr noundef %1, ptr noundef %2, ptr readnone captures(none) %3, i16 noundef zeroext %4, i8 zeroext %5, ptr readnone captures(none) %6) #0 {
  %8 = load i32, ptr @hf_pfcp_spare_b7_b6, align 4
  %9 = tail call ptr @proto_tree_add_item(ptr noundef %2, i32 noundef %8, ptr noundef %0, i32 noundef 0, i32 noundef 1, i32 noundef 0)
  %10 = load i32, ptr @hf_pfcp_qfi, align 4
  %11 = tail call ptr @proto_tree_add_item(ptr noundef %2, i32 noundef %10, ptr noundef %0, i32 noundef 0, i32 noundef 1, i32 noundef 0)
  %12 = icmp ugt i16 %4, 1
  br i1 %12, label %13, label %15

13:                                               ; preds = %7
  %14 = tail call ptr @proto_tree_add_expert(ptr noundef %2, ptr noundef %1, ptr noundef nonnull @ei_pfcp_ie_data_not_decoded, ptr noundef %0, i32 noundef 1, i32 noundef -1)
  br label %15

15:                                               ; preds = %13, %7
  ret void
}